target datalayout = "e-m:e-p270:32:32-p271:32:32-p272:64:64-i64:64-i128:128-f80:128-n8:16:32:64-S128"
target triple = "x86_64-unknown-linux-gnu"

%"class.rocksdb::IOStatus" = type { %"class.rocksdb::Status" }
%"class.rocksdb::Status" = type { i8, i8, i8, i8, i8, i8, %"class.std::unique_ptr" }
%"class.std::unique_ptr" = type { %"struct.std::__uniq_ptr_data" }
%"struct.std::__uniq_ptr_data" = type { %"class.std::__uniq_ptr_impl" }
%"class.std::__uniq_ptr_impl" = type { %"class.std::tuple" }
%"class.std::tuple" = type { %"struct.std::_Tuple_impl" }
%"struct.std::_Tuple_impl" = type { %"struct.std::_Head_base.1" }
%"struct.std::_Head_base.1" = type { ptr }
%"class.rocksdb::MutexLock" = type { ptr }
%"class.rocksdb::FaultInjectionTestFS" = type <{ %"class.rocksdb::FileSystemWrapper", %"class.rocksdb::port::Mutex", %"class.std::map", %"class.std::set", %"class.std::unordered_map", i8, i8, [6 x i8], %"class.rocksdb::IOStatus", %"class.std::unique_ptr.17", i8, i8, [2 x i8], %"class.rocksdb::Random", i32, i32, %"struct.std::atomic", i8, [3 x i8], %"class.std::vector.25", %"class.std::set.30", i8, i8, i8, [5 x i8] }>
%"class.rocksdb::FileSystemWrapper" = type { %"class.rocksdb::FileSystem", %"class.std::shared_ptr" }
%"class.rocksdb::FileSystem" = type { %"class.rocksdb::Customizable" }
%"class.rocksdb::Customizable" = type { %"class.rocksdb::Configurable" }
%"class.rocksdb::Configurable" = type { ptr, %"class.std::vector" }
%"class.std::vector" = type { %"struct.std::_Vector_base" }
%"struct.std::_Vector_base" = type { %"struct.std::_Vector_base<rocksdb::Configurable::RegisteredOptions, std::allocator<rocksdb::Configurable::RegisteredOptions>>::_Vector_impl" }
%"struct.std::_Vector_base<rocksdb::Configurable::RegisteredOptions, std::allocator<rocksdb::Configurable::RegisteredOptions>>::_Vector_impl" = type { %"struct.std::_Vector_base<rocksdb::Configurable::RegisteredOptions, std::allocator<rocksdb::Configurable::RegisteredOptions>>::_Vector_impl_data" }
%"struct.std::_Vector_base<rocksdb::Configurable::RegisteredOptions, std::allocator<rocksdb::Configurable::RegisteredOptions>>::_Vector_impl_data" = type { ptr, ptr, ptr }
%"class.std::shared_ptr" = type { %"class.std::__shared_ptr" }
%"class.std::__shared_ptr" = type { ptr, %"class.std::__shared_count" }
%"class.std::__shared_count" = type { ptr }
%"class.rocksdb::port::Mutex" = type { %union.pthread_mutex_t }
%union.pthread_mutex_t = type { %struct.__pthread_mutex_s }
%struct.__pthread_mutex_s = type { i32, i32, i32, i32, i32, i16, i16, %struct.__pthread_internal_list }
%struct.__pthread_internal_list = type { ptr, ptr }
%"class.std::map" = type { %"class.std::_Rb_tree" }
%"class.std::_Rb_tree" = type { %"struct.std::_Rb_tree<std::__cxx11::basic_string<char>, std::pair<const std::__cxx11::basic_string<char>, rocksdb::FSFileState>, std::_Select1st<std::pair<const std::__cxx11::basic_string<char>, rocksdb::FSFileState>>, std::less<std::__cxx11::basic_string<char>>>::_Rb_tree_impl" }
%"struct.std::_Rb_tree<std::__cxx11::basic_string<char>, std::pair<const std::__cxx11::basic_string<char>, rocksdb::FSFileState>, std::_Select1st<std::pair<const std::__cxx11::basic_string<char>, rocksdb::FSFileState>>, std::less<std::__cxx11::basic_string<char>>>::_Rb_tree_impl" = type { %"struct.std::_Rb_tree_key_compare", %"struct.std::_Rb_tree_header" }
%"struct.std::_Rb_tree_key_compare" = type { %"struct.std::less" }
%"struct.std::less" = type { i8 }
%"struct.std::_Rb_tree_header" = type { %"struct.std::_Rb_tree_node_base", i64 }
%"struct.std::_Rb_tree_node_base" = type { i32, ptr, ptr, ptr }
%"class.std::set" = type { %"class.std::_Rb_tree.8" }
%"class.std::_Rb_tree.8" = type { %"struct.std::_Rb_tree<std::__cxx11::basic_string<char>, std::__cxx11::basic_string<char>, std::_Identity<std::__cxx11::basic_string<char>>, std::less<std::__cxx11::basic_string<char>>>::_Rb_tree_impl" }
%"struct.std::_Rb_tree<std::__cxx11::basic_string<char>, std::__cxx11::basic_string<char>, std::_Identity<std::__cxx11::basic_string<char>>, std::less<std::__cxx11::basic_string<char>>>::_Rb_tree_impl" = type { %"struct.std::_Rb_tree_key_compare", %"struct.std::_Rb_tree_header" }
%"class.std::unordered_map" = type { %"class.std::_Hashtable" }
%"class.std::_Hashtable" = type { ptr, i64, %"struct.std::__detail::_Hash_node_base", i64, %"struct.std::__detail::_Prime_rehash_policy", ptr }
%"struct.std::__detail::_Hash_node_base" = type { ptr }
%"struct.std::__detail::_Prime_rehash_policy" = type { float, i64 }
%"class.std::unique_ptr.17" = type { %"struct.std::__uniq_ptr_data.18" }
%"struct.std::__uniq_ptr_data.18" = type { %"class.std::__uniq_ptr_impl.19" }
%"class.std::__uniq_ptr_impl.19" = type { %"class.std::tuple.20" }
%"class.std::tuple.20" = type { %"struct.std::_Tuple_impl.21" }
%"struct.std::_Tuple_impl.21" = type { %"struct.std::_Head_base.24" }
%"struct.std::_Head_base.24" = type { ptr }
%"class.rocksdb::Random" = type { i32 }
%"struct.std::atomic" = type { %"struct.std::__atomic_base" }
%"struct.std::__atomic_base" = type { i32 }
%"class.std::vector.25" = type { %"struct.std::_Vector_base.26" }
%"struct.std::_Vector_base.26" = type { %"struct.std::_Vector_base<rocksdb::FileType, std::allocator<rocksdb::FileType>>::_Vector_impl" }
%"struct.std::_Vector_base<rocksdb::FileType, std::allocator<rocksdb::FileType>>::_Vector_impl" = type { %"struct.std::_Vector_base<rocksdb::FileType, std::allocator<rocksdb::FileType>>::_Vector_impl_data" }
%"struct.std::_Vector_base<rocksdb::FileType, std::allocator<rocksdb::FileType>>::_Vector_impl_data" = type { ptr, ptr, ptr }
%"class.std::set.30" = type { %"class.std::_Rb_tree.31" }
%"class.std::_Rb_tree.31" = type { %"struct.std::_Rb_tree<rocksdb::FileType, rocksdb::FileType, std::_Identity<rocksdb::FileType>, std::less<rocksdb::FileType>>::_Rb_tree_impl" }
%"struct.std::_Rb_tree<rocksdb::FileType, rocksdb::FileType, std::_Identity<rocksdb::FileType>, std::less<rocksdb::FileType>>::_Rb_tree_impl" = type { %"struct.std::_Rb_tree_key_compare.35", %"struct.std::_Rb_tree_header" }
%"struct.std::_Rb_tree_key_compare.35" = type { %"struct.std::less.36" }
%"struct.std::less.36" = type { i8 }
%"class.rocksdb::TestFSRandomRWFile" = type { %"class.rocksdb::FSRandomRWFile", %"class.std::unique_ptr.68", i8, ptr }
%"class.rocksdb::FSRandomRWFile" = type { ptr }
%"class.std::unique_ptr.68" = type { %"struct.std::__uniq_ptr_data.69" }
%"struct.std::__uniq_ptr_data.69" = type { %"class.std::__uniq_ptr_impl.70" }
%"class.std::__uniq_ptr_impl.70" = type { %"class.std::tuple.71" }
%"class.std::tuple.71" = type { %"struct.std::_Tuple_impl.72" }
%"struct.std::_Tuple_impl.72" = type { %"struct.std::_Head_base.75" }
%"struct.std::_Head_base.75" = type { ptr }

; Function Attrs: mustprogress nounwind uwtable
define linkonce_odr noundef nonnull align 8 dereferenceable(8) ptr @_ZNSt10_Head_baseILm0EPN7rocksdb14FSRandomRWFileELb0EE7_M_headERKS3_(ptr noundef nonnull align 8 dereferenceable(8) %__b) #6 comdat align 2 {
entry:
  %__b.addr = alloca ptr, align 8
  store ptr %__b, ptr %__b.addr, align 8
  %0 = load ptr, ptr %__b.addr, align 8
  %_M_head_impl = getelementptr inbounds %"struct.std::_Head_base.75", ptr %0, i32 0, i32 0
  ret ptr %_M_head_impl
}

; Function Attrs: mustprogress nounwind uwtable
define linkonce_odr noundef nonnull align 8 dereferenceable(8) ptr @_ZNSt11_Tuple_implILm0EJPN7rocksdb14FSRandomRWFileESt14default_deleteIS1_EEE7_M_headERKS5_(ptr noundef nonnull align 8 dereferenceable(8) %__t) #6 comdat align 2 {
entry:
  %__t.addr = alloca ptr, align 8
  store ptr %__t, ptr %__t.addr, align 8
  %0 = load ptr, ptr %__t.addr, align 8
  %call = call noundef nonnull align 8 dereferenceable(8) ptr @_ZNSt10_Head_baseILm0EPN7rocksdb14FSRandomRWFileELb0EE7_M_headERKS3_(ptr noundef nonnull align 8 dereferenceable(8) %0) #3
  ret ptr %call
}

; Function Attrs: mustprogress nounwind uwtable
define linkonce_odr noundef nonnull align 8 dereferenceable(8) ptr @_ZSt12__get_helperILm0EPN7rocksdb14FSRandomRWFileEJSt14default_deleteIS1_EEERKT0_RKSt11_Tuple_implIXT_EJS5_DpT1_EE(ptr noundef nonnull align 8 dereferenceable(8) %__t) #6 comdat {
entry:
  %__t.addr = alloca ptr, align 8
  store ptr %__t, ptr %__t.addr, align 8
  %0 = load ptr, ptr %__t.addr, align 8
  %call = call noundef nonnull align 8 dereferenceable(8) ptr @_ZNSt11_Tuple_implILm0EJPN7rocksdb14FSRandomRWFileESt14default_deleteIS1_EEE7_M_headERKS5_(ptr noundef nonnull align 8 dereferenceable(8) %0) #3
  ret ptr %call
}

; Function Attrs: mustprogress nounwind uwtable
define linkonce_odr noundef nonnull align 8 dereferenceable(8) ptr @_ZSt3getILm0EJPN7rocksdb14FSRandomRWFileESt14default_deleteIS1_EEERKNSt13tuple_elementIXT_ESt5tupleIJDpT0_EEE4typeERKS9_(ptr noundef nonnull align 8 dereferenceable(8) %__t) #6 comdat {
entry:
  %__t.addr = alloca ptr, align 8
  store ptr %__t, ptr %__t.addr, align 8
  %0 = load ptr, ptr %__t.addr, align 8
  %call = call noundef nonnull align 8 dereferenceable(8) ptr @_ZSt12__get_helperILm0EPN7rocksdb14FSRandomRWFileEJSt14default_deleteIS1_EEERKT0_RKSt11_Tuple_implIXT_EJS5_DpT1_EE(ptr noundef nonnull align 8 dereferenceable(8) %0) #3
  ret ptr %call
}

; Function Attrs: mustprogress nounwind uwtable
define linkonce_odr noundef ptr @_ZNKSt15__uniq_ptr_implIN7rocksdb14FSRandomRWFileESt14default_deleteIS1_EE6_M_ptrEv(ptr noundef nonnull align 8 dereferenceable(8) %this) #6 comdat align 2 {
entry:
  %this.addr = alloca ptr, align 8
  store ptr %this, ptr %this.addr, align 8
  %this1 = load ptr, ptr %this.addr, align 8
  %_M_t = getelementptr inbounds %"class.std::__uniq_ptr_impl.70", ptr %this1, i32 0, i32 0
  %call = call noundef nonnull align 8 dereferenceable(8) ptr @_ZSt3getILm0EJPN7rocksdb14FSRandomRWFileESt14default_deleteIS1_EEERKNSt13tuple_elementIXT_ESt5tupleIJDpT0_EEE4typeERKS9_(ptr noundef nonnull align 8 dereferenceable(8) %_M_t) #3
  %0 = load ptr, ptr %call, align 8
  ret ptr %0
}

; Function Attrs: mustprogress nounwind uwtable
define linkonce_odr noundef ptr @_ZNKSt10unique_ptrIN7rocksdb14FSRandomRWFileESt14default_deleteIS1_EE3getEv(ptr noundef nonnull align 8 dereferenceable(8) %this) #6 comdat align 2 {
entry:
  %this.addr = alloca ptr, align 8
  store ptr %this, ptr %this.addr, align 8
  %this1 = load ptr, ptr %this.addr, align 8
  %_M_t = getelementptr inbounds %"class.std::unique_ptr.68", ptr %this1, i32 0, i32 0
  %call = call noundef ptr @_ZNKSt15__uniq_ptr_implIN7rocksdb14FSRandomRWFileESt14default_deleteIS1_EE6_M_ptrEv(ptr noundef nonnull align 8 dereferenceable(8) %_M_t) #3
  ret ptr %call
}

; Function Attrs: mustprogress nounwind uwtable
define linkonce_odr void @_ZN7rocksdb9MutexLockD2Ev(ptr noundef nonnull align 8 dereferenceable(8) %this) unnamed_addr #6 comdat align 2 personality ptr @__gxx_personality_v0 {
entry:
  %this.addr = alloca ptr, align 8
  store ptr %this, ptr %this.addr, align 8
  %this1 = load ptr, ptr %this.addr, align 8
  %mu_ = getelementptr inbounds %"class.rocksdb::MutexLock", ptr %this1, i32 0, i32 0
  %0 = load ptr, ptr %mu_, align 8
  invoke void @_ZN7rocksdb4port5Mutex6UnlockEv(ptr noundef nonnull align 8 dereferenceable(40) %0)
          to label %invoke.cont unwind label %terminate.lpad

invoke.cont:                                      ; preds = %entry
  ret void

terminate.lpad:                                   ; preds = %entry
  %1 = landingpad { ptr, i32 }
          catch ptr null
  %2 = extractvalue { ptr, i32 } %1, 0
  call void @__clang_call_terminate(ptr %2) #16
  unreachable
}

; Function Attrs: mustprogress uwtable
define linkonce_odr void @_ZN7rocksdb9MutexLockC2EPNS_4port5MutexE(ptr noundef nonnull align 8 dereferenceable(8) %this, ptr noundef %mu) unnamed_addr #2 comdat align 2 {
entry:
  %this.addr = alloca ptr, align 8
  %mu.addr = alloca ptr, align 8
  store ptr %this, ptr %this.addr, align 8
  store ptr %mu, ptr %mu.addr, align 8
  %this1 = load ptr, ptr %this.addr, align 8
  %mu_ = getelementptr inbounds %"class.rocksdb::MutexLock", ptr %this1, i32 0, i32 0
  %0 = load ptr, ptr %mu.addr, align 8
  store ptr %0, ptr %mu_, align 8
  %mu_2 = getelementptr inbounds %"class.rocksdb::MutexLock", ptr %this1, i32 0, i32 0
  %1 = load ptr, ptr %mu_2, align 8
  call void @_ZN7rocksdb4port5Mutex4LockEv(ptr noundef nonnull align 8 dereferenceable(40) %1)
  ret void
}

; Function Attrs: mustprogress nounwind uwtable
define linkonce_odr noundef ptr @_ZNKSt10unique_ptrIN7rocksdb14FSRandomRWFileESt14default_deleteIS1_EEptEv(ptr noundef nonnull align 8 dereferenceable(8) %this) #6 comdat align 2 {
entry:
  %this.addr = alloca ptr, align 8
  store ptr %this, ptr %this.addr, align 8
  %this1 = load ptr, ptr %this.addr, align 8
  %call = call noundef ptr @_ZNKSt10unique_ptrIN7rocksdb14FSRandomRWFileESt14default_deleteIS1_EE3getEv(ptr noundef nonnull align 8 dereferenceable(8) %this1) #3
  ret ptr %call
}

; Function Attrs: mustprogress uwtable
define linkonce_odr void @_ZN7rocksdb20FaultInjectionTestFS8GetErrorEv(ptr noalias sret(%"class.rocksdb::IOStatus") align 8 %agg.result, ptr noundef nonnull align 8 dereferenceable(371) %this) #2 comdat align 2 {
entry:
  %result.ptr = alloca ptr, align 8
  %this.addr = alloca ptr, align 8
  store ptr %agg.result, ptr %result.ptr, align 8
  store ptr %this, ptr %this.addr, align 8
  %this1 = load ptr, ptr %this.addr, align 8
  %error_ = getelementptr inbounds %"class.rocksdb::FaultInjectionTestFS", ptr %this1, i32 0, i32 8
  call void @_ZN7rocksdb8IOStatusC2ERKS0_(ptr noundef nonnull align 8 dereferenceable(16) %agg.result, ptr noundef nonnull align 8 dereferenceable(16) %error_)
  ret void
}

; Function Attrs: mustprogress uwtable
define linkonce_odr noundef zeroext i1 @_ZN7rocksdb20FaultInjectionTestFS18IsFilesystemActiveEv(ptr noundef nonnull align 8 dereferenceable(371) %this) #2 comdat align 2 {
entry:
  %this.addr = alloca ptr, align 8
  %l = alloca %"class.rocksdb::MutexLock", align 8
  store ptr %this, ptr %this.addr, align 8
  %this1 = load ptr, ptr %this.addr, align 8
  %mutex_ = getelementptr inbounds %"class.rocksdb::FaultInjectionTestFS", ptr %this1, i32 0, i32 1
  call void @_ZN7rocksdb9MutexLockC2EPNS_4port5MutexE(ptr noundef nonnull align 8 dereferenceable(8) %l, ptr noundef %mutex_)
  %filesystem_active_ = getelementptr inbounds %"class.rocksdb::FaultInjectionTestFS", ptr %this1, i32 0, i32 5
  %0 = load i8, ptr %filesystem_active_, align 8
  %tobool = trunc i8 %0 to i1
  call void @_ZN7rocksdb9MutexLockD2Ev(ptr noundef nonnull align 8 dereferenceable(8) %l) #3
  ret i1 %tobool
}

; Function Attrs: mustprogress uwtable
define void @_ZN7rocksdb18TestFSRandomRWFile5FlushERKNS_9IOOptionsEPNS_14IODebugContextE(ptr noalias sret(%"class.rocksdb::IOStatus") align 8 %agg.result, ptr noundef nonnull align 8 dereferenceable(32) %this, ptr noundef nonnull align 8 dereferenceable(83) %options, ptr noundef %dbg) unnamed_addr #2 align 2 {
entry:
  %result.ptr = alloca ptr, align 8
  %this.addr = alloca ptr, align 8
  %options.addr = alloca ptr, align 8
  %dbg.addr = alloca ptr, align 8
  store ptr %agg.result, ptr %result.ptr, align 8
  store ptr %this, ptr %this.addr, align 8
  store ptr %options, ptr %options.addr, align 8
  store ptr %dbg, ptr %dbg.addr, align 8
  %this1 = load ptr, ptr %this.addr, align 8
  %fs_ = getelementptr inbounds %"class.rocksdb::TestFSRandomRWFile", ptr %this1, i32 0, i32 3
  %0 = load ptr, ptr %fs_, align 8
  %call = call noundef zeroext i1 @_ZN7rocksdb20FaultInjectionTestFS18IsFilesystemActiveEv(ptr noundef nonnull align 8 dereferenceable(371) %0)
  br i1 %call, label %if.end, label %if.then

if.then:                                          ; preds = %entry
  %fs_2 = getelementptr inbounds %"class.rocksdb::TestFSRandomRWFile", ptr %this1, i32 0, i32 3
  %1 = load ptr, ptr %fs_2, align 8
  call void @_ZN7rocksdb20FaultInjectionTestFS8GetErrorEv(ptr sret(%"class.rocksdb::IOStatus") align 8 %agg.result, ptr noundef nonnull align 8 dereferenceable(371) %1)
  br label %return

if.end:                                           ; preds = %entry
  %target_ = getelementptr inbounds %"class.rocksdb::TestFSRandomRWFile", ptr %this1, i32 0, i32 1
  %call3 = call noundef ptr @_ZNKSt10unique_ptrIN7rocksdb14FSRandomRWFileESt14default_deleteIS1_EEptEv(ptr noundef nonnull align 8 dereferenceable(8) %target_) #3
  %2 = load ptr, ptr %options.addr, align 8
  %3 = load ptr, ptr %dbg.addr, align 8
  %vtable = load ptr, ptr %call3, align 8
  %vfn = getelementptr inbounds ptr, ptr %vtable, i64 6
  %4 = load ptr, ptr %vfn, align 8
  call void %4(ptr sret(%"class.rocksdb::IOStatus") align 8 %agg.result, ptr noundef nonnull align 8 dereferenceable(8) %call3, ptr noundef nonnull align 8 dereferenceable(83) %2, ptr noundef %3)
  br label %return

return:                                           ; preds = %if.end, %if.then
  ret void
}